target datalayout = "e-m:e-p270:32:32-p271:32:32-p272:64:64-i64:64-i128:128-f80:128-n8:16:32:64-S128"
target triple = "x86_64-pc-linux-gnu"

%struct.opj_tcd = type { i32, i32, i32, i32, i32, ptr, ptr, ptr, ptr, i32, i8, ptr, i32, i32, i32, i32, i32, ptr }

; Function Attrs: nounwind uwtable
define hidden ptr @opj_tcd_create(i32 noundef %0) #0 {
  %2 = alloca ptr, align 8
  %3 = alloca i32, align 4
  %4 = alloca ptr, align 8
  %5 = alloca i32, align 4
  store i32 %0, ptr %3, align 4, !tbaa !3
  call void @llvm.lifetime.start.p0(i64 8, ptr %4) #8
  store ptr null, ptr %4, align 8, !tbaa !7
  %6 = call ptr @opj_calloc(i64 noundef 1, i64 noundef 104)
  store ptr %6, ptr %4, align 8, !tbaa !7
  %7 = load ptr, ptr %4, align 8, !tbaa !7
  %8 = icmp ne ptr %7, null
  br i1 %8, label %10, label %9

9:                                                ; preds = %1
  store ptr null, ptr %2, align 8
  store i32 1, ptr %5, align 4
  br label %32

10:                                               ; preds = %1
  %11 = load i32, ptr %3, align 4, !tbaa !3
  %12 = icmp ne i32 %11, 0
  %13 = select i1 %12, i32 1, i32 0
  %14 = load ptr, ptr %4, align 8, !tbaa !7
  %15 = getelementptr inbounds nuw %struct.opj_tcd, ptr %14, i32 0, i32 10
  %16 = trunc i32 %13 to i8
  %17 = load i8, ptr %15, align 4
  %18 = and i8 %16, 1
  %19 = and i8 %17, -2
  %20 = or i8 %19, %18
  store i8 %20, ptr %15, align 4
  %21 = call ptr @opj_calloc(i64 noundef 1, i64 noundef 8)
  %22 = load ptr, ptr %4, align 8, !tbaa !7
  %23 = getelementptr inbounds nuw %struct.opj_tcd, ptr %22, i32 0, i32 5
  store ptr %21, ptr %23, align 8, !tbaa !10
  %24 = load ptr, ptr %4, align 8, !tbaa !7
  %25 = getelementptr inbounds nuw %struct.opj_tcd, ptr %24, i32 0, i32 5
  %26 = load ptr, ptr %25, align 8, !tbaa !10
  %27 = icmp ne ptr %26, null
  br i1 %27, label %30, label %28

28:                                               ; preds = %10
  %29 = load ptr, ptr %4, align 8, !tbaa !7
  call void @opj_free(ptr noundef %29)
  store ptr null, ptr %2, align 8
  store i32 1, ptr %5, align 4
  br label %32

30:                                               ; preds = %10
  %31 = load ptr, ptr %4, align 8, !tbaa !7
  store ptr %31, ptr %2, align 8
  store i32 1, ptr %5, align 4
  br label %32

32:                                               ; preds = %30, %28, %9
  call void @llvm.lifetime.end.p0(i64 8, ptr %4) #8
  %33 = load ptr, ptr %2, align 8
  ret ptr %33
}