; Function Attrs: nounwind uwtable
define hidden ptr @opj_tcd_create(i32 noundef %0) local_unnamed_addr #0 {
  %2 = tail call ptr @opj_calloc(i64 noundef 1, i64 noundef 104) #16
  %.not = icmp eq ptr %2, null
  br i1 %.not, label %12, label %3

3:                                                ; preds = %1
  %.not8 = icmp ne i32 %0, 0
  %4 = getelementptr inbounds nuw i8, ptr %2, i64 60
  %5 = zext i1 %.not8 to i8
  %6 = load i8, ptr %4, align 4
  %7 = and i8 %6, -2
  %8 = or disjoint i8 %7, %5
  store i8 %8, ptr %4, align 4
  %9 = tail call ptr @opj_calloc(i64 noundef 1, i64 noundef 8) #16
  %10 = getelementptr inbounds nuw i8, ptr %2, i64 24
  store ptr %9, ptr %10, align 8, !tbaa !3
  %.not9 = icmp eq ptr %9, null
  br i1 %.not9, label %11, label %12

11:                                               ; preds = %3
  tail call void @opj_free(ptr noundef nonnull %2) #16
  br label %12

12:                                               ; preds = %3, %1, %11
  %.0 = phi ptr [ null, %11 ], [ null, %1 ], [ %2, %3 ]
  ret ptr %.0
}